; Function Attrs: nounwind sspstrong uwtable
define internal noundef i64 @strscan_rest(i64 noundef %0) #0 {
  %2 = tail call ptr @rb_check_typeddata(i64 noundef %0, ptr noundef nonnull @strscanner_type) #12
  %3 = getelementptr inbounds nuw i8, ptr %2, i64 8
  %4 = load i64, ptr %3, align 8, !tbaa !23
  %5 = icmp eq i64 %4, 4
  br i1 %5, label %6, label %8

6:                                                ; preds = %1
  %7 = load i64, ptr @rb_eArgError, align 8, !tbaa !10
  tail call void (i64, ptr, ...) @rb_raise(i64 noundef %7, ptr noundef nonnull @.str.66) #14
  unreachable

8:                                                ; preds = %1
  %9 = getelementptr inbounds nuw i8, ptr %2, i64 24
  %10 = load i64, ptr %9, align 8, !tbaa !29
  %11 = inttoptr i64 %4 to ptr
  %12 = getelementptr inbounds nuw i8, ptr %11, i64 16
  %13 = load i64, ptr %12, align 8, !tbaa !32
  %.not = icmp slt i64 %10, %13
  br i1 %.not, label %16, label %14

14:                                               ; preds = %8
  %15 = tail call i64 @rb_str_new(ptr noundef nonnull @.str.70, i64 noundef 0) #12
  br label %24

16:                                               ; preds = %8
  %17 = load i64, ptr %11, align 8, !tbaa !34, !noalias !97
  %18 = and i64 %17, 8192
  %.not.i.i.i = icmp eq i64 %18, 0
  %19 = getelementptr inbounds nuw i8, ptr %11, i64 24
  br i1 %.not.i.i.i, label %extract_range.exit, label %20

20:                                               ; preds = %16
  %.sroa.2.0.copyload.i.i = load ptr, ptr %19, align 8
  br label %extract_range.exit

extract_range.exit:                               ; preds = %16, %20
  %.sroa.2.0.i.i = phi ptr [ %.sroa.2.0.copyload.i.i, %20 ], [ %19, %16 ]
  %21 = getelementptr inbounds i8, ptr %.sroa.2.0.i.i, i64 %10
  %22 = sub nsw i64 %13, %10
  %23 = tail call i64 @rb_str_new(ptr noundef %21, i64 noundef %22) #12
  br label %24

24:                                               ; preds = %extract_range.exit, %14
  %.sink = phi i64 [ %23, %extract_range.exit ], [ %15, %14 ]
  %25 = load i64, ptr %3, align 8, !tbaa !23
  tail call void @rb_enc_copy(i64 noundef %.sink, i64 noundef %25) #12
  ret i64 %.sink
}